target datalayout = "e-m:e-p270:32:32-p271:32:32-p272:64:64-i64:64-i128:128-f80:128-n8:16:32:64-S128"
target triple = "x86_64-pc-linux-gnu"

@.str.111 = private unnamed_addr constant [10 x i8] c"udp.knxip\00", align 1
@.str.112 = private unnamed_addr constant [10 x i8] c"tcp.knxip\00", align 1
@pref_key_file_name = internal global ptr null, align 8
@pref_key_file_pwd = internal global ptr null, align 8
@pref_key_info_file_name = internal global ptr null, align 8
@pref_key_texts = internal global [10 x ptr] zeroinitializer, align 16
@.str.135 = private unnamed_addr constant [9 x i8] c"udp.port\00", align 1
@.str.136 = private unnamed_addr constant [5 x i8] c"3671\00", align 1
@.str.137 = private unnamed_addr constant [9 x i8] c"tcp.port\00", align 1
@knx_decryption_key_count = hidden global i8 0, align 1
@knx_decryption_keys = hidden global [10 x [16 x i8]] zeroinitializer, align 16

; Function Attrs: alwaysinline nounwind
define internal ptr @memcpy.inline(ptr noalias %0, ptr noalias %1, i64 %2) #7 {
  %4 = alloca ptr, align 8
  %5 = alloca ptr, align 8
  %6 = alloca i64, align 8
  store ptr %0, ptr %4, align 8
  store ptr %1, ptr %5, align 8
  store i64 %2, ptr %6, align 8
  %7 = load ptr, ptr %4, align 8
  %8 = load ptr, ptr %5, align 8
  %9 = load i64, ptr %6, align 8
  %10 = load ptr, ptr %4, align 8
  %11 = call i64 @llvm.objectsize.i64.p0(ptr %10, i1 false, i1 true, i1 true)
  %12 = call ptr @__memcpy_chk(ptr noundef %7, ptr noundef %8, i64 noundef %9, i64 noundef %11) #9
  ret ptr %12
}

; Function Attrs: null_pointer_is_valid sspstrong uwtable
define internal zeroext i8 @hex_to_knx_key(ptr noundef %0, ptr noundef %1) #0 {
  %3 = alloca ptr, align 8
  %4 = alloca ptr, align 8
  %5 = alloca i64, align 8
  %6 = alloca ptr, align 8
  store ptr %0, ptr %3, align 8
  store ptr %1, ptr %4, align 8
  call void @llvm.lifetime.start.p0(i64 8, ptr %5) #9
  store i64 0, ptr %5, align 8
  call void @llvm.lifetime.start.p0(i64 8, ptr %6) #9
  %7 = load ptr, ptr %3, align 8
  %8 = call ptr @convert_string_to_hex(ptr noundef %7, ptr noundef %5)
  store ptr %8, ptr %6, align 8
  %9 = load ptr, ptr %6, align 8
  %10 = icmp eq ptr %9, null
  br i1 %10, label %11, label %12

11:                                               ; preds = %2
  store i64 0, ptr %5, align 8
  br label %39

12:                                               ; preds = %2
  %13 = load i64, ptr %5, align 8
  %14 = icmp ne i64 %13, 0
  br i1 %14, label %15, label %37

15:                                               ; preds = %12
  %16 = load i64, ptr %5, align 8
  %17 = icmp ugt i64 %16, 16
  br i1 %17, label %18, label %19

18:                                               ; preds = %15
  store i64 16, ptr %5, align 8
  br label %19

19:                                               ; preds = %18, %15
  %20 = load i64, ptr %5, align 8
  %21 = icmp ne i64 %20, 0
  br i1 %21, label %22, label %27

22:                                               ; preds = %19
  %23 = load ptr, ptr %4, align 8
  %24 = load ptr, ptr %6, align 8
  %25 = load i64, ptr %5, align 8
  %26 = call ptr @memcpy.inline(ptr noundef %23, ptr noundef %24, i64 noundef %25) #9
  br label %27

27:                                               ; preds = %22, %19
  br label %28

28:                                               ; preds = %31, %27
  %29 = load i64, ptr %5, align 8
  %30 = icmp ult i64 %29, 16
  br i1 %30, label %31, label %36

31:                                               ; preds = %28
  %32 = load ptr, ptr %4, align 8
  %33 = load i64, ptr %5, align 8
  %34 = add i64 %33, 1
  store i64 %34, ptr %5, align 8
  %35 = getelementptr i8, ptr %32, i64 %33
  store i8 0, ptr %35, align 1
  br label %28, !llvm.loop !11

36:                                               ; preds = %28
  br label %37

37:                                               ; preds = %36, %12
  %38 = load ptr, ptr %6, align 8
  call void @g_free(ptr noundef %38)
  br label %39

39:                                               ; preds = %37, %11
  %40 = load i64, ptr %5, align 8
  %41 = icmp ne i64 %40, 0
  %42 = zext i1 %41 to i32
  %43 = trunc i32 %42 to i8
  call void @llvm.lifetime.end.p0(i64 8, ptr %6) #9
  call void @llvm.lifetime.end.p0(i64 8, ptr %5) #9
  ret i8 %43
}

; Function Attrs: null_pointer_is_valid sspstrong uwtable
define hidden void @proto_reg_handoff_knxip() #0 {
  %1 = alloca ptr, align 8
  %2 = alloca i8, align 1
  %3 = alloca ptr, align 8
  call void @llvm.lifetime.start.p0(i64 8, ptr %1) #9
  call void @llvm.lifetime.start.p0(i64 1, ptr %2) #9
  call void @llvm.lifetime.start.p0(i64 8, ptr %3) #9
  %4 = call ptr @find_dissector(ptr noundef @.str.111)
  store ptr %4, ptr %1, align 8
  %5 = load ptr, ptr %1, align 8
  call void @dissector_add_uint_range_with_preference(ptr noundef @.str.135, ptr noundef @.str.136, ptr noundef %5)
  %6 = call ptr @find_dissector(ptr noundef @.str.112)
  store ptr %6, ptr %1, align 8
  %7 = load ptr, ptr %1, align 8
  call void @dissector_add_uint_range_with_preference(ptr noundef @.str.137, ptr noundef @.str.136, ptr noundef %7)
  %8 = load ptr, ptr @pref_key_file_name, align 8
  %9 = icmp ne ptr %8, null
  br i1 %9, label %10, label %14

10:                                               ; preds = %0
  %11 = load ptr, ptr @pref_key_file_name, align 8
  %12 = load ptr, ptr @pref_key_file_pwd, align 8
  %13 = load ptr, ptr @pref_key_info_file_name, align 8
  call void @read_knx_keyring_xml_file(ptr noundef %11, ptr noundef %12, ptr noundef %13)
  br label %14

14:                                               ; preds = %10, %0
  store i8 0, ptr @knx_decryption_key_count, align 1
  store i8 0, ptr %2, align 1
  br label %15

15:                                               ; preds = %45, %14
  %16 = load i8, ptr %2, align 1
  %17 = zext i8 %16 to i32
  %18 = icmp slt i32 %17, 10
  br i1 %18, label %19, label %23

19:                                               ; preds = %15
  %20 = load i8, ptr @knx_decryption_key_count, align 1
  %21 = zext i8 %20 to i32
  %22 = icmp slt i32 %21, 10
  br label %23

23:                                               ; preds = %19, %15
  %24 = phi i1 [ false, %15 ], [ %22, %19 ]
  br i1 %24, label %25, label %48

25:                                               ; preds = %23
  %26 = load i8, ptr %2, align 1
  %27 = zext i8 %26 to i64
  %28 = getelementptr [10 x ptr], ptr @pref_key_texts, i64 0, i64 %27
  %29 = load ptr, ptr %28, align 8
  store ptr %29, ptr %3, align 8
  %30 = load ptr, ptr %3, align 8
  %31 = icmp ne ptr %30, null
  br i1 %31, label %32, label %44

32:                                               ; preds = %25
  %33 = load ptr, ptr %3, align 8
  %34 = load i8, ptr @knx_decryption_key_count, align 1
  %35 = zext i8 %34 to i64
  %36 = getelementptr [10 x [16 x i8]], ptr @knx_decryption_keys, i64 0, i64 %35
  %37 = getelementptr inbounds [16 x i8], ptr %36, i64 0, i64 0
  %38 = call zeroext i8 @hex_to_knx_key(ptr noundef %33, ptr noundef %37)
  %39 = icmp ne i8 %38, 0
  br i1 %39, label %40, label %43

40:                                               ; preds = %32
  %41 = load i8, ptr @knx_decryption_key_count, align 1
  %42 = add i8 %41, 1
  store i8 %42, ptr @knx_decryption_key_count, align 1
  br label %43

43:                                               ; preds = %40, %32
  br label %44

44:                                               ; preds = %43, %25
  br label %45

45:                                               ; preds = %44
  %46 = load i8, ptr %2, align 1
  %47 = add i8 %46, 1
  store i8 %47, ptr %2, align 1
  br label %15, !llvm.loop !10

48:                                               ; preds = %23
  call void @llvm.lifetime.end.p0(i64 8, ptr %3) #9
  call void @llvm.lifetime.end.p0(i64 1, ptr %2) #9
  call void @llvm.lifetime.end.p0(i64 8, ptr %1) #9
  ret void
}