; Function Attrs: null_pointer_is_valid sspstrong uwtable
define hidden void @proto_reg_handoff_knxip() #0 {
  %1 = alloca i64, align 8
  %2 = tail call ptr @find_dissector(ptr noundef nonnull @.str.111)
  tail call void @dissector_add_uint_range_with_preference(ptr noundef nonnull @.str.135, ptr noundef nonnull @.str.136, ptr noundef %2)
  %3 = tail call ptr @find_dissector(ptr noundef nonnull @.str.112)
  tail call void @dissector_add_uint_range_with_preference(ptr noundef nonnull @.str.137, ptr noundef nonnull @.str.136, ptr noundef %3)
  %4 = load ptr, ptr @pref_key_file_name, align 8
  %.not = icmp eq ptr %4, null
  br i1 %.not, label %.lr.ph.preheader, label %5

5:                                                ; preds = %0
  %6 = load ptr, ptr @pref_key_file_pwd, align 8
  %7 = load ptr, ptr @pref_key_info_file_name, align 8
  tail call void @read_knx_keyring_xml_file(ptr noundef nonnull %4, ptr noundef %6, ptr noundef %7)
  br label %.lr.ph.preheader

.lr.ph.preheader:                                 ; preds = %0, %5
  store i8 0, ptr @knx_decryption_key_count, align 1
  br label %.lr.ph

.lr.ph:                                           ; preds = %.lr.ph.preheader, %28
  %8 = phi i8 [ 0, %.lr.ph.preheader ], [ %29, %28 ]
  %indvars.iv = phi i64 [ 0, %.lr.ph.preheader ], [ %indvars.iv.next, %28 ]
  %9 = getelementptr [10 x ptr], ptr @pref_key_texts, i64 0, i64 %indvars.iv
  %10 = load ptr, ptr %9, align 8
  %.not8 = icmp eq ptr %10, null
  br i1 %.not8, label %28, label %11

11:                                               ; preds = %.lr.ph
  %12 = zext nneg i8 %8 to i64
  %.idx = shl nuw nsw i64 %12, 4
  %13 = getelementptr [10 x [16 x i8]], ptr @knx_decryption_keys, i64 0, i64 %12
  call void @llvm.lifetime.start.p0(i64 8, ptr nonnull %1) #11
  store i64 0, ptr %1, align 8
  %14 = call ptr @convert_string_to_hex(ptr noundef nonnull %10, ptr noundef nonnull %1)
  %15 = icmp eq ptr %14, null
  br i1 %15, label %hex_to_knx_key.exit.thread, label %16

hex_to_knx_key.exit.thread:                       ; preds = %11
  call void @llvm.lifetime.end.p0(i64 8, ptr nonnull %1) #11
  %.pre = load i8, ptr @knx_decryption_key_count, align 1
  br label %28

16:                                               ; preds = %11
  %17 = load i64, ptr %1, align 8
  %.not.i = icmp eq i64 %17, 0
  br i1 %.not.i, label %hex_to_knx_key.exit, label %18

18:                                               ; preds = %16
  %19 = icmp ugt i64 %17, 16
  br i1 %19, label %.thread.i, label %22

.thread.i:                                        ; preds = %18
  store i64 16, ptr %1, align 8
  %20 = sub nuw nsw i64 160, %.idx
  %21 = call ptr @__memcpy_chk(ptr noundef %13, ptr noundef nonnull %14, i64 noundef range(i64 1, 0) 16, i64 noundef %20) #11, !alias.scope !10
  br label %hex_to_knx_key.exit

22:                                               ; preds = %18
  %23 = sub nuw nsw i64 160, %.idx
  %24 = call ptr @__memcpy_chk(ptr noundef %13, ptr noundef nonnull %14, i64 noundef range(i64 1, 0) %17, i64 noundef %23) #11, !alias.scope !10
  %.not11.i = icmp eq i64 %17, 16
  br i1 %.not11.i, label %hex_to_knx_key.exit, label %.lr.ph.preheader.i

.lr.ph.preheader.i:                               ; preds = %22
  %scevgep.i = getelementptr i8, ptr %13, i64 %17
  %25 = sub nuw nsw i64 16, %17
  call void @llvm.memset.p0.i64(ptr align 1 %scevgep.i, i8 0, i64 %25, i1 false)
  store i64 16, ptr %1, align 8
  br label %hex_to_knx_key.exit

hex_to_knx_key.exit:                              ; preds = %16, %.thread.i, %22, %.lr.ph.preheader.i
  call void @g_free(ptr noundef nonnull %14)
  %.pre.i = load i64, ptr %1, align 8
  %.not12 = icmp eq i64 %.pre.i, 0
  call void @llvm.lifetime.end.p0(i64 8, ptr nonnull %1) #11
  %.pre15 = load i8, ptr @knx_decryption_key_count, align 1
  br i1 %.not12, label %28, label %26

26:                                               ; preds = %hex_to_knx_key.exit
  %27 = add i8 %.pre15, 1
  store i8 %27, ptr @knx_decryption_key_count, align 1
  br label %28

28:                                               ; preds = %hex_to_knx_key.exit.thread, %.lr.ph, %26, %hex_to_knx_key.exit
  %29 = phi i8 [ %.pre, %hex_to_knx_key.exit.thread ], [ %8, %.lr.ph ], [ %27, %26 ], [ %.pre15, %hex_to_knx_key.exit ]
  %indvars.iv.next = add nuw nsw i64 %indvars.iv, 1
  %30 = icmp samesign ult i64 %indvars.iv, 9
  %31 = icmp ult i8 %29, 10
  %32 = select i1 %30, i1 %31, i1 false
  br i1 %32, label %.lr.ph, label %._crit_edge, !llvm.loop !14

._crit_edge:                                      ; preds = %28
  ret void
}